; Function Attrs: mustprogress uwtable
define hidden void @_ZN3nla6basics40basic_lemma_for_mon_non_zero_model_basedERKNS_5monicERKNS_13factorizationE(ptr noundef nonnull align 8 dereferenceable(184) %this, ptr nocapture nonnull readnone align 8 %rm, ptr noundef nonnull align 8 dereferenceable(16) %f) local_unnamed_addr #3 align 2 personality ptr @__gxx_personality_v0 {
entry:
  %j = alloca %"class.nla::factor", align 4
  %ref.tmp = alloca %class.rational, align 8
  %lemma = alloca %"class.nla::new_lemma", align 8
  %ref.tmp5 = alloca %"class.nla::ineq", align 8
  %ref.tmp13 = alloca %"class.nla::ineq", align 8
  %0 = load ptr, ptr %f, align 8
  %cmp.i.i.i = icmp eq ptr %0, null
  br i1 %cmp.i.i.i, label %for.end, label %_ZNK3nla13factorization3endEv.exit

_ZNK3nla13factorization3endEv.exit:               ; preds = %entry
  %arrayidx.i.i.i = getelementptr inbounds i8, ptr %0, i64 -4
  %1 = load i32, ptr %arrayidx.i.i.i, align 4
  %2 = zext i32 %1 to i64
  %add.ptr.i.i = getelementptr inbounds %"class.nla::factor", ptr %0, i64 %2
  %cmp.not8 = icmp eq i32 %1, 0
  br i1 %cmp.not8, label %for.end, label %invoke.cont.lr.ph

invoke.cont.lr.ph:                                ; preds = %_ZNK3nla13factorization3endEv.exit
  %m_den.i.i = getelementptr inbounds i8, ptr %ref.tmp, i64 16
  br label %invoke.cont

for.cond:                                         ; preds = %_ZN8rationalD2Ev.exit
  %incdec.ptr = getelementptr inbounds i8, ptr %__begin1.09, i64 12
  %cmp.not = icmp eq ptr %incdec.ptr, %add.ptr.i.i
  br i1 %cmp.not, label %for.end, label %invoke.cont

invoke.cont:                                      ; preds = %invoke.cont.lr.ph, %for.cond
  %__begin1.09 = phi ptr [ %0, %invoke.cont.lr.ph ], [ %incdec.ptr, %for.cond ]
  call void @llvm.memcpy.p0.p0.i64(ptr noundef nonnull align 4 dereferenceable(12) %j, ptr noundef nonnull align 4 dereferenceable(12) %__begin1.09, i64 12, i1 false)
  call void @_ZNK3nla6common3valINS_6factorEEE8rationalRKT_(ptr nonnull sret(%class.rational) align 8 %ref.tmp, ptr noundef nonnull align 8 dereferenceable(184) %this, ptr noundef nonnull align 4 dereferenceable(9) %j)
  %3 = load i32, ptr %ref.tmp, align 8
  %cmp.i.i.i.i = icmp eq i32 %3, 0
  %4 = load ptr, ptr @_ZN8rational13g_mpq_managerE, align 8
  invoke void @_ZN11mpz_managerILb1EE3delEPS0_R3mpz(ptr noundef %4, ptr noundef nonnull align 8 dereferenceable(16) %ref.tmp)
          to label %.noexc.i unwind label %terminate.lpad.i

.noexc.i:                                         ; preds = %invoke.cont
  invoke void @_ZN11mpz_managerILb1EE3delEPS0_R3mpz(ptr noundef %4, ptr noundef nonnull align 8 dereferenceable(16) %m_den.i.i)
          to label %_ZN8rationalD2Ev.exit unwind label %terminate.lpad.i

terminate.lpad.i:                                 ; preds = %.noexc.i, %invoke.cont
  %5 = landingpad { ptr, i32 }
          catch ptr null
  %6 = extractvalue { ptr, i32 } %5, 0
  call void @__clang_call_terminate(ptr %6) #16
  unreachable

_ZN8rationalD2Ev.exit:                            ; preds = %.noexc.i
  br i1 %cmp.i.i.i.i, label %if.then, label %for.cond

if.then:                                          ; preds = %_ZN8rationalD2Ev.exit
  %7 = load ptr, ptr %this, align 8
  call void @_ZN3nla9new_lemmaC1ERNS_4coreEPKc(ptr noundef nonnull align 8 dereferenceable(16) %lemma, ptr noundef nonnull align 8 dereferenceable(4720) %7, ptr noundef nonnull @.str.12)
  %call8 = invoke noundef i32 @_ZNK3nla6common3varINS_6factorEEEjRKT_(ptr noundef nonnull align 8 dereferenceable(184) %this, ptr noundef nonnull align 4 dereferenceable(9) %j)
          to label %invoke.cont7 unwind label %lpad6

invoke.cont7:                                     ; preds = %if.then
  invoke void @_ZN3nla4ineqC2EjN2lp16lconstraint_kindEi(ptr noundef nonnull align 8 dereferenceable(64) %ref.tmp5, i32 noundef %call8, i32 noundef 3, i32 noundef 0)
          to label %invoke.cont9 unwind label %lpad6

invoke.cont9:                                     ; preds = %invoke.cont7
  %call12 = invoke noundef nonnull align 8 dereferenceable(16) ptr @_ZN3nla9new_lemmaoRERKNS_4ineqE(ptr noundef nonnull align 8 dereferenceable(16) %lemma, ptr noundef nonnull align 8 dereferenceable(64) %ref.tmp5)
          to label %invoke.cont11 unwind label %lpad10

invoke.cont11:                                    ; preds = %invoke.cont9
  call void @_ZN3nla4ineqD2Ev(ptr noundef nonnull align 8 dereferenceable(64) %ref.tmp5) #17
  %m_mon.i = getelementptr inbounds i8, ptr %f, i64 8
  %8 = load ptr, ptr %m_mon.i, align 8
  %9 = load i32, ptr %8, align 8
  invoke void @_ZN3nla4ineqC2EjN2lp16lconstraint_kindEi(ptr noundef nonnull align 8 dereferenceable(64) %ref.tmp13, i32 noundef %9, i32 noundef 0, i32 noundef 0)
          to label %invoke.cont18 unwind label %lpad6

invoke.cont18:                                    ; preds = %invoke.cont11
  %call21 = invoke noundef nonnull align 8 dereferenceable(16) ptr @_ZN3nla9new_lemmaoRERKNS_4ineqE(ptr noundef nonnull align 8 dereferenceable(16) %lemma, ptr noundef nonnull align 8 dereferenceable(64) %ref.tmp13)
          to label %invoke.cont20 unwind label %lpad19

invoke.cont20:                                    ; preds = %invoke.cont18
  call void @_ZN3nla4ineqD2Ev(ptr noundef nonnull align 8 dereferenceable(64) %ref.tmp13) #17
  %call23 = invoke noundef nonnull align 8 dereferenceable(16) ptr @_ZN3nla9new_lemmaaNERKNS_13factorizationE(ptr noundef nonnull align 8 dereferenceable(16) %lemma, ptr noundef nonnull align 8 dereferenceable(16) %f)
          to label %invoke.cont22 unwind label %lpad6

invoke.cont22:                                    ; preds = %invoke.cont20
  call void @_ZN3nla9new_lemmaD1Ev(ptr noundef nonnull align 8 dereferenceable(16) %lemma) #17
  br label %for.end

lpad6:                                            ; preds = %invoke.cont20, %invoke.cont11, %invoke.cont7, %if.then
  %10 = landingpad { ptr, i32 }
          cleanup
  br label %ehcleanup

lpad10:                                           ; preds = %invoke.cont9
  %11 = landingpad { ptr, i32 }
          cleanup
  call void @_ZN3nla4ineqD2Ev(ptr noundef nonnull align 8 dereferenceable(64) %ref.tmp5) #17
  br label %ehcleanup

lpad19:                                           ; preds = %invoke.cont18
  %12 = landingpad { ptr, i32 }
          cleanup
  call void @_ZN3nla4ineqD2Ev(ptr noundef nonnull align 8 dereferenceable(64) %ref.tmp13) #17
  br label %ehcleanup

ehcleanup:                                        ; preds = %lpad19, %lpad10, %lpad6
  %.pn = phi { ptr, i32 } [ %10, %lpad6 ], [ %12, %lpad19 ], [ %11, %lpad10 ]
  call void @_ZN3nla9new_lemmaD1Ev(ptr noundef nonnull align 8 dereferenceable(16) %lemma) #17
  resume { ptr, i32 } %.pn

for.end:                                          ; preds = %for.cond, %entry, %_ZNK3nla13factorization3endEv.exit, %invoke.cont22
  ret void
}